target datalayout = "e-m:e-p270:32:32-p271:32:32-p272:64:64-i64:64-i128:128-f80:128-n8:16:32:64-S128"
target triple = "x86_64-pc-linux-gnu"

@.str.4 = private unnamed_addr constant [5 x i8] c"HOME\00", align 1
@.str.26 = private unnamed_addr constant [15 x i8] c"XDG_CACHE_HOME\00", align 1
@.str.27 = private unnamed_addr constant [10 x i8] c"%s/git/%s\00", align 1
@.str.28 = private unnamed_addr constant [17 x i8] c"%s/.cache/git/%s\00", align 1

; Function Attrs: nounwind uwtable
define dso_local ptr @xdg_cache_home(ptr noundef %0) #0 {
  %2 = alloca ptr, align 8
  %3 = alloca ptr, align 8
  %4 = alloca ptr, align 8
  %5 = alloca ptr, align 8
  %6 = alloca i32, align 4
  store ptr %0, ptr %3, align 8, !tbaa !43
  call void @llvm.lifetime.start.p0(i64 8, ptr %4) #12
  call void @llvm.lifetime.start.p0(i64 8, ptr %5) #12
  %7 = call ptr @getenv(ptr noundef @.str.26) #12
  store ptr %7, ptr %5, align 8, !tbaa !43
  %8 = load ptr, ptr %5, align 8, !tbaa !43
  %9 = icmp ne ptr %8, null
  br i1 %9, label %10, label %19

10:                                               ; preds = %1
  %11 = load ptr, ptr %5, align 8, !tbaa !43
  %12 = load i8, ptr %11, align 1, !tbaa !18
  %13 = sext i8 %12 to i32
  %14 = icmp ne i32 %13, 0
  br i1 %14, label %15, label %19

15:                                               ; preds = %10
  %16 = load ptr, ptr %5, align 8, !tbaa !43
  %17 = load ptr, ptr %3, align 8, !tbaa !43
  %18 = call ptr (ptr, ...) @mkpathdup(ptr noundef @.str.27, ptr noundef %16, ptr noundef %17)
  store ptr %18, ptr %2, align 8
  store i32 1, ptr %6, align 4
  br label %28

19:                                               ; preds = %10, %1
  %20 = call ptr @getenv(ptr noundef @.str.4) #12
  store ptr %20, ptr %4, align 8, !tbaa !43
  %21 = load ptr, ptr %4, align 8, !tbaa !43
  %22 = icmp ne ptr %21, null
  br i1 %22, label %23, label %27

23:                                               ; preds = %19
  %24 = load ptr, ptr %4, align 8, !tbaa !43
  %25 = load ptr, ptr %3, align 8, !tbaa !43
  %26 = call ptr (ptr, ...) @mkpathdup(ptr noundef @.str.28, ptr noundef %24, ptr noundef %25)
  store ptr %26, ptr %2, align 8
  store i32 1, ptr %6, align 4
  br label %28

27:                                               ; preds = %19
  store ptr null, ptr %2, align 8
  store i32 1, ptr %6, align 4
  br label %28

28:                                               ; preds = %27, %23, %15
  call void @llvm.lifetime.end.p0(i64 8, ptr %5) #12
  call void @llvm.lifetime.end.p0(i64 8, ptr %4) #12
  %29 = load ptr, ptr %2, align 8
  ret ptr %29
}