; Function Attrs: nounwind uwtable
define dso_local ptr @xdg_cache_home(ptr noundef %0) local_unnamed_addr #3 {
  %2 = tail call ptr @getenv(ptr noundef nonnull @.str.26) #29
  %.not = icmp eq ptr %2, null
  br i1 %.not, label %7, label %3

3:                                                ; preds = %1
  %4 = load i8, ptr %2, align 1, !tbaa !14
  %.not10 = icmp eq i8 %4, 0
  br i1 %.not10, label %7, label %5

5:                                                ; preds = %3
  %6 = tail call ptr (ptr, ...) @mkpathdup(ptr noundef nonnull @.str.27, ptr noundef nonnull %2, ptr noundef %0)
  br label %11

7:                                                ; preds = %3, %1
  %8 = tail call ptr @getenv(ptr noundef nonnull @.str.4) #29
  %.not11 = icmp eq ptr %8, null
  br i1 %.not11, label %11, label %9

9:                                                ; preds = %7
  %10 = tail call ptr (ptr, ...) @mkpathdup(ptr noundef nonnull @.str.28, ptr noundef nonnull %8, ptr noundef %0)
  br label %11

11:                                               ; preds = %7, %9, %5
  %.0 = phi ptr [ %6, %5 ], [ %10, %9 ], [ null, %7 ]
  ret ptr %.0
}